; Function Attrs: mustprogress uwtable
define noundef double @_ZN8proxygen7RFC261611parseQvalueERKSt6vectorISt4pairIN5folly5RangeIPKcEES7_ESaIS8_EE(ptr nocapture noundef nonnull readonly align 8 dereferenceable(24) %params) local_unnamed_addr #2 {
entry:
  %0 = load ptr, ptr %params, align 8
  %_M_finish.i = getelementptr inbounds i8, ptr %params, i64 8
  %1 = load ptr, ptr %_M_finish.i, align 8
  %cmp.i.not5 = icmp eq ptr %0, %1
  br i1 %cmp.i.not5, label %for.end, label %for.body

for.body:                                         ; preds = %entry, %for.inc
  %qvalue.07 = phi double [ %qvalue.1, %for.inc ], [ 1.000000e+00, %entry ]
  %__begin2.sroa.0.06 = phi ptr [ %incdec.ptr.i, %for.inc ], [ %0, %entry ]
  %ref.tmp.sroa.0.0.copyload.i = load ptr, ptr %__begin2.sroa.0.06, align 8
  %ref.tmp.sroa.2.0.lhs.sroa_idx.i = getelementptr inbounds i8, ptr %__begin2.sroa.0.06, i64 8
  %ref.tmp.sroa.2.0.copyload.i = load ptr, ptr %ref.tmp.sroa.2.0.lhs.sroa_idx.i, align 8
  %sub.ptr.lhs.cast.i.i.i = ptrtoint ptr %ref.tmp.sroa.2.0.copyload.i to i64
  %sub.ptr.rhs.cast.i.i.i = ptrtoint ptr %ref.tmp.sroa.0.0.copyload.i to i64
  %sub.ptr.sub.i.i.i = sub i64 %sub.ptr.lhs.cast.i.i.i, %sub.ptr.rhs.cast.i.i.i
  %cmp.i.i = icmp eq i64 %sub.ptr.sub.i.i.i, 1
  br i1 %cmp.i.i, label %_ZNSt11char_traitsIcE7compareEPKcS2_m.exit.i.i.i, label %for.inc

_ZNSt11char_traitsIcE7compareEPKcS2_m.exit.i.i.i: ; preds = %for.body
  %lhsc = load i8, ptr %ref.tmp.sroa.0.0.copyload.i, align 1
  %cmp.i.i.i = icmp eq i8 %lhsc, 113
  br i1 %cmp.i.i.i, label %if.then, label %for.inc

if.then:                                          ; preds = %_ZNSt11char_traitsIcE7compareEPKcS2_m.exit.i.i.i
  %second = getelementptr inbounds i8, ptr %__begin2.sroa.0.06, i64 16
  %agg.tmp.sroa.0.0.copyload = load ptr, ptr %second, align 8
  %agg.tmp.sroa.2.0.second.sroa_idx = getelementptr inbounds i8, ptr %__begin2.sroa.0.06, i64 24
  %agg.tmp.sroa.2.0.copyload = load ptr, ptr %agg.tmp.sroa.2.0.second.sroa_idx, align 8
  %call6 = tail call noundef double @_ZN5folly2toIdEENSt9enable_ifIXntsr3std7is_sameINS_5RangeIPKcEET_EE5valueES6_E4typeES5_(ptr %agg.tmp.sroa.0.0.copyload, ptr %agg.tmp.sroa.2.0.copyload)
  br label %for.inc

for.inc:                                          ; preds = %_ZNSt11char_traitsIcE7compareEPKcS2_m.exit.i.i.i, %for.body, %if.then
  %qvalue.1 = phi double [ %call6, %if.then ], [ %qvalue.07, %for.body ], [ %qvalue.07, %_ZNSt11char_traitsIcE7compareEPKcS2_m.exit.i.i.i ]
  %incdec.ptr.i = getelementptr inbounds i8, ptr %__begin2.sroa.0.06, i64 32
  %cmp.i.not = icmp eq ptr %incdec.ptr.i, %1
  br i1 %cmp.i.not, label %for.end, label %for.body

for.end:                                          ; preds = %for.inc, %entry
  %qvalue.0.lcssa = phi double [ 1.000000e+00, %entry ], [ %qvalue.1, %for.inc ]
  ret double %qvalue.0.lcssa
}